target datalayout = "e-m:e-p270:32:32-p271:32:32-p272:64:64-i64:64-i128:128-f80:128-n8:16:32:64-S128"
target triple = "x86_64-unknown-linux-gnu"

%"class.OpenColorIO_v2_4dev::DynamicProperty" = type { ptr }
%"class.OpenColorIO_v2_4dev::DynamicPropertyImpl.base" = type <{ %"class.OpenColorIO_v2_4dev::DynamicProperty", i32, i8 }>
%"class.OpenColorIO_v2_4dev::DynamicPropertyGradingPrimaryImpl" = type { %"class.OpenColorIO_v2_4dev::DynamicPropertyImpl.base", %"class.OpenColorIO_v2_4dev::DynamicPropertyGradingPrimary", i32, i32, %"struct.OpenColorIO_v2_4dev::GradingPrimary", %"struct.OpenColorIO_v2_4dev::GradingPrimaryPreRender" }
%"class.OpenColorIO_v2_4dev::DynamicPropertyGradingPrimary" = type { ptr }
%"struct.OpenColorIO_v2_4dev::GradingPrimary" = type { %"struct.OpenColorIO_v2_4dev::GradingRGBM", %"struct.OpenColorIO_v2_4dev::GradingRGBM", %"struct.OpenColorIO_v2_4dev::GradingRGBM", %"struct.OpenColorIO_v2_4dev::GradingRGBM", %"struct.OpenColorIO_v2_4dev::GradingRGBM", %"struct.OpenColorIO_v2_4dev::GradingRGBM", %"struct.OpenColorIO_v2_4dev::GradingRGBM", double, double, double, double, double, double }
%"struct.OpenColorIO_v2_4dev::GradingRGBM" = type { double, double, double, double }
%"struct.OpenColorIO_v2_4dev::GradingPrimaryPreRender" = type <{ %"struct.std::array", %"struct.std::array", %"struct.std::array", %"struct.std::array", %"struct.std::array", %"struct.std::array", double, i8, i8, [6 x i8] }>
%"struct.std::array" = type { [3 x float] }

; Function Attrs: mustprogress nounwind uwtable
define hidden void @_ZN19OpenColorIO_v2_4dev33DynamicPropertyGradingPrimaryImpl12setDirectionENS_18TransformDirectionE(ptr noundef nonnull align 8 dereferenceable(392) %this, i32 noundef %dir) #1 align 2 {
entry:
  %this.addr = alloca ptr, align 8
  %dir.addr = alloca i32, align 4
  store ptr %this, ptr %this.addr, align 8
  store i32 %dir, ptr %dir.addr, align 4
  %this1 = load ptr, ptr %this.addr, align 8
  %m_direction = getelementptr inbounds %"class.OpenColorIO_v2_4dev::DynamicPropertyGradingPrimaryImpl", ptr %this1, i32 0, i32 3
  %0 = load i32, ptr %m_direction, align 4
  %1 = load i32, ptr %dir.addr, align 4
  %cmp = icmp ne i32 %0, %1
  br i1 %cmp, label %if.then, label %if.end

if.then:                                          ; preds = %entry
  %2 = load i32, ptr %dir.addr, align 4
  %m_direction2 = getelementptr inbounds %"class.OpenColorIO_v2_4dev::DynamicPropertyGradingPrimaryImpl", ptr %this1, i32 0, i32 3
  store i32 %2, ptr %m_direction2, align 4
  %m_preRenderValues = getelementptr inbounds %"class.OpenColorIO_v2_4dev::DynamicPropertyGradingPrimaryImpl", ptr %this1, i32 0, i32 5
  %m_style = getelementptr inbounds %"class.OpenColorIO_v2_4dev::DynamicPropertyGradingPrimaryImpl", ptr %this1, i32 0, i32 2
  %3 = load i32, ptr %m_style, align 8
  %m_direction3 = getelementptr inbounds %"class.OpenColorIO_v2_4dev::DynamicPropertyGradingPrimaryImpl", ptr %this1, i32 0, i32 3
  %4 = load i32, ptr %m_direction3, align 4
  %m_value = getelementptr inbounds %"class.OpenColorIO_v2_4dev::DynamicPropertyGradingPrimaryImpl", ptr %this1, i32 0, i32 4
  call void @_ZN19OpenColorIO_v2_4dev23GradingPrimaryPreRender6updateENS_12GradingStyleENS_18TransformDirectionERKNS_14GradingPrimaryE(ptr noundef nonnull align 8 dereferenceable(82) %m_preRenderValues, i32 noundef %3, i32 noundef %4, ptr noundef nonnull align 8 dereferenceable(272) %m_value) #13
  br label %if.end

if.end:                                           ; preds = %if.then, %entry
  ret void
}