; Function Attrs: mustprogress nounwind uwtable
define hidden void @_ZN19OpenColorIO_v2_4dev33DynamicPropertyGradingPrimaryImpl12setDirectionENS_18TransformDirectionE(ptr noundef nonnull align 8 dereferenceable(392) %this, i32 noundef %dir) local_unnamed_addr #3 align 2 {
entry:
  %m_direction = getelementptr inbounds i8, ptr %this, i64 28
  %0 = load i32, ptr %m_direction, align 4
  %cmp.not = icmp eq i32 %0, %dir
  br i1 %cmp.not, label %if.end, label %if.then

if.then:                                          ; preds = %entry
  store i32 %dir, ptr %m_direction, align 4
  %m_preRenderValues = getelementptr inbounds i8, ptr %this, i64 304
  %m_style = getelementptr inbounds i8, ptr %this, i64 24
  %1 = load i32, ptr %m_style, align 8
  %m_value = getelementptr inbounds i8, ptr %this, i64 32
  tail call void @_ZN19OpenColorIO_v2_4dev23GradingPrimaryPreRender6updateENS_12GradingStyleENS_18TransformDirectionERKNS_14GradingPrimaryE(ptr noundef nonnull align 8 dereferenceable(82) %m_preRenderValues, i32 noundef %1, i32 noundef %dir, ptr noundef nonnull align 8 dereferenceable(272) %m_value) #20
  br label %if.end

if.end:                                           ; preds = %if.then, %entry
  ret void
}